target datalayout = "e-m:e-p270:32:32-p271:32:32-p272:64:64-i64:64-i128:128-f80:128-n8:16:32:64-S128"
target triple = "x86_64-pc-linux-gnu"

; Function Attrs: mustprogress nounwind uwtable
define hidden noundef i32 @_ZN9CDSConfig12num_archivesEPKc(ptr noundef %0) #1 align 2 {
  %2 = alloca i32, align 4
  %3 = alloca ptr, align 8
  %4 = alloca i32, align 4
  %5 = alloca ptr, align 8
  store ptr %0, ptr %3, align 8
  %6 = load ptr, ptr %3, align 8
  %7 = icmp eq ptr %6, null
  br i1 %7, label %8, label %9

8:                                                ; preds = %1
  store i32 0, ptr %2, align 4
  br label %33

9:                                                ; preds = %1
  store i32 1, ptr %4, align 4
  %10 = load ptr, ptr %3, align 8
  store ptr %10, ptr %5, align 8
  br label %11

11:                                               ; preds = %28, %9
  %12 = load ptr, ptr %5, align 8
  %13 = load i8, ptr %12, align 1
  %14 = sext i8 %13 to i32
  %15 = icmp ne i32 %14, 0
  br i1 %15, label %16, label %31

16:                                               ; preds = %11
  %17 = load ptr, ptr %5, align 8
  %18 = load i8, ptr %17, align 1
  %19 = sext i8 %18 to i32
  %20 = call noundef ptr @_ZN2os14path_separatorEv()
  %21 = getelementptr inbounds i8, ptr %20, i64 0
  %22 = load i8, ptr %21, align 1
  %23 = sext i8 %22 to i32
  %24 = icmp eq i32 %19, %23
  br i1 %24, label %25, label %28

25:                                               ; preds = %16
  %26 = load i32, ptr %4, align 4
  %27 = add nsw i32 %26, 1
  store i32 %27, ptr %4, align 4
  br label %28

28:                                               ; preds = %25, %16
  %29 = load ptr, ptr %5, align 8
  %30 = getelementptr inbounds i8, ptr %29, i32 1
  store ptr %30, ptr %5, align 8
  br label %11, !llvm.loop !6

31:                                               ; preds = %11
  %32 = load i32, ptr %4, align 4
  store i32 %32, ptr %2, align 4
  br label %33

33:                                               ; preds = %31, %8
  %34 = load i32, ptr %2, align 4
  ret i32 %34
}