; Function Attrs: mustprogress nounwind uwtable
define hidden noundef i32 @_ZN9CDSConfig12num_archivesEPKc(ptr noundef readonly %0) local_unnamed_addr #2 align 2 {
  %2 = icmp eq ptr %0, null
  br i1 %2, label %.loopexit, label %.preheader

.preheader:                                       ; preds = %1
  %3 = load i8, ptr %0, align 1
  %.not11 = icmp eq i8 %3, 0
  br i1 %.not11, label %.loopexit, label %.lr.ph

.lr.ph:                                           ; preds = %.preheader, %.lr.ph
  %4 = phi i8 [ %10, %.lr.ph ], [ %3, %.preheader ]
  %.013 = phi ptr [ %9, %.lr.ph ], [ %0, %.preheader ]
  %.0712 = phi i32 [ %spec.select, %.lr.ph ], [ 1, %.preheader ]
  %5 = tail call noundef ptr @_ZN2os14path_separatorEv() #9
  %6 = load i8, ptr %5, align 1
  %7 = icmp eq i8 %4, %6
  %8 = zext i1 %7 to i32
  %spec.select = add nuw nsw i32 %.0712, %8
  %9 = getelementptr inbounds i8, ptr %.013, i64 1
  %10 = load i8, ptr %9, align 1
  %.not = icmp eq i8 %10, 0
  br i1 %.not, label %.loopexit, label %.lr.ph, !llvm.loop !9

.loopexit:                                        ; preds = %.lr.ph, %.preheader, %1
  %.08 = phi i32 [ 0, %1 ], [ 1, %.preheader ], [ %spec.select, %.lr.ph ]
  ret i32 %.08
}